target datalayout = "e-m:e-p270:32:32-p271:32:32-p272:64:64-i64:64-i128:128-f80:128-n8:16:32:64-S128"
target triple = "x86_64-pc-linux-gnu"

; Function Attrs: mustprogress uwtable
define internal noundef ptr @_ZL14aria_ctx_allocv() #0 {
  %1 = alloca ptr, align 8
  %2 = alloca ptr, align 8
  %3 = alloca i32, align 4
  call void @llvm.lifetime.start.p0(i64 8, ptr %2) #5
  %4 = call noalias ptr @calloc(i64 noundef 1, i64 noundef 276) #6
  store ptr %4, ptr %2, align 8, !tbaa !17
  %5 = load ptr, ptr %2, align 8, !tbaa !17
  %6 = icmp eq ptr %5, null
  br i1 %6, label %7, label %8

7:                                                ; preds = %0
  store ptr null, ptr %1, align 8
  store i32 1, ptr %3, align 4
  br label %11

8:                                                ; preds = %0
  %9 = load ptr, ptr %2, align 8, !tbaa !17
  call void @mbedtls_aria_init(ptr noundef %9)
  %10 = load ptr, ptr %2, align 8, !tbaa !17
  store ptr %10, ptr %1, align 8
  store i32 1, ptr %3, align 4
  br label %11

11:                                               ; preds = %8, %7
  call void @llvm.lifetime.end.p0(i64 8, ptr %2) #5
  %12 = load ptr, ptr %1, align 8
  ret ptr %12
}